Certificate:
    Data:
        Version: 3 (0x2)
        Serial Number: 10 (0xa)
        Signature Algorithm: sha256WithRSAEncryption
        Issuer: C=CZ, O=GRAPE SC, a.s., OU=Nangu.TV Media Platform, CN=Nangu.TV Media Platform Root Signing Authority/emailAddress=helpdesk@nangu.tv
        Validity
            Not Before: Oct  6 12:43:58 2023 GMT
            Not After : Oct  4 12:43:58 2028 GMT
        Subject: C=CZ, O=GRAPE SC, a.s., OU=Nangu.TV Media Platform, CN=1/emailAddress=helpdesk@nangu.tv
        Subject Public Key Info:
            Public Key Algorithm: rsaEncryption
                RSA Public-Key: (4096 bit)
                Modulus:
                    00:cc:50:d2:04:f9:53:d9:2e:e9:b9:71:37:e2:71:
                    b9:35:cd:11:12:53:a6:81:22:47:69:d4:dd:28:7e:
                    3d:52:f1:92:e3:06:62:37:2f:63:ab:bd:be:3e:4f:
                    25:b0:d4:8e:78:9b:b2:d7:96:74:30:80:0c:50:93:
                    cc:92:f6:b1:b1:c2:4f:f8:cc:64:c6:1e:16:ff:ab:
                    b1:63:94:fc:bc:e9:f3:cd:8a:39:07:c6:4d:70:e5:
                    2a:1a:6b:31:d7:f8:16:18:f3:0b:27:26:70:d8:01:
                    5f:ad:72:81:f9:3e:06:94:94:0c:df:d7:e3:62:df:
                    f6:b5:97:6c:76:89:ef:5a:b7:35:b6:6e:7c:66:bc:
                    2d:37:ad:5f:a3:d3:78:0d:8c:64:2e:64:b2:82:a5:
                    9f:f4:b6:95:25:62:0c:2a:72:75:cc:c7:78:87:08:
                    5f:c0:d8:3b:65:e1:76:16:c6:dc:a1:05:e4:be:c4:
                    f6:46:ea:7d:35:c0:a6:2b:db:98:ee:78:69:5f:21:
                    3f:00:7e:d1:ef:b2:d1:fa:d7:cf:16:42:1c:c2:f7:
                    be:28:96:d4:e7:7e:47:51:c3:86:67:92:ff:7a:0b:
                    9d:af:24:2f:70:f5:bc:46:8b:be:79:69:1c:5d:71:
                    3e:df:d8:30:89:5f:3b:f4:9d:c5:e5:1e:1c:aa:49:
                    d4:74:39:9d:da:c3:40:8e:b1:09:60:f4:c7:7e:73:
                    74:75:19:04:89:09:84:5b:4c:13:a9:c9:1f:9d:40:
                    79:92:94:93:2b:5d:b0:1f:74:16:d3:e3:4b:4a:e8:
                    33:94:8d:5c:f9:b9:72:a9:75:19:15:76:f0:d3:08:
                    bf:f4:7d:42:f5:2c:64:fd:b0:15:09:af:a8:ed:cb:
                    dd:e9:18:b4:33:3a:03:0d:bc:d9:77:5b:5a:2b:e9:
                    ef:17:d2:99:14:b7:60:9c:eb:b1:c3:db:89:63:72:
                    d7:29:f2:9c:8f:40:c0:2a:54:6b:61:b3:dc:c2:14:
                    45:38:e6:12:f2:04:91:6b:b0:f9:72:a3:ae:44:02:
                    1b:08:e0:bb:b7:2b:b5:80:e8:e9:77:03:eb:10:26:
                    86:2f:da:8c:10:1a:6b:1d:e7:0a:6e:50:c9:0f:a3:
                    b6:a9:dd:97:28:99:31:3c:06:68:bf:a0:e4:40:71:
                    37:c6:d9:86:e1:41:e6:01:6f:a2:db:7c:5d:74:01:
                    5b:5c:72:9d:da:23:d7:f6:22:6b:2b:d6:3b:85:b6:
                    cf:b2:32:18:22:a4:79:1c:f5:fd:0f:a5:9c:69:dd:
                    ad:5e:d8:2f:7f:2e:d3:ed:17:fc:90:dd:c5:5a:c8:
                    aa:41:a5:6d:71:6c:9f:87:3e:57:e9:d9:cb:f3:c9:
                    d9:d7:b3
                Exponent: 65537 (0x10001)
        X509v3 extensions:
            X509v3 Basic Constraints: 
                CA:FALSE
            X509v3 Subject Key Identifier: 
                FA:2F:99:84:E9:AC:DC:79:C0:25:46:E2:F8:48:9B:0A:5C:64:A6:67
            X509v3 Authority Key Identifier: 
                keyid:0A:2F:03:53:69:2B:FC:97:12:29:92:D1:48:66:29:9F:00:2D:09:43
                DirName:/C=CZ/CN=Root Signing Authority - SHA256/O=nangu.TV, a.s./OU=nangu.TV Media Platform/emailAddress=helpdesk@nangu.tv
                serial:03

            Netscape CA Revocation Url: 
                https://www.itonis.tv/revoke.crl
            X509v3 Key Usage: 
                Digital Signature, Non Repudiation, Key Encipherment, Certificate Sign
    Signature Algorithm: sha256WithRSAEncryption
         78:93:ea:cd:6d:47:b2:39:c6:5a:e2:e8:db:1f:1c:51:ff:9d:
         9e:1a:cc:66:16:6b:07:3f:1d:1a:8a:e3:ca:43:d6:97:c8:35:
         31:10:fe:e0:00:f4:38:b5:4f:c7:cb:e8:8f:ef:1f:68:bd:a4:
         b1:f0:fc:ed:5c:90:64:cb:15:2d:96:40:b7:f3:fc:c3:9d:ef:
         7b:bb:a4:9c:bb:5a:e4:aa:90:85:72:8a:58:3d:e3:b3:fe:b5:
         60:ac:71:70:a4:62:47:5f:45:92:1f:74:4e:83:61:8d:85:df:
         81:d5:67:52:ad:ac:ed:fc:10:2f:22:9e:3d:57:16:55:33:d9:
         34:c6:00:f3:9d:4d:d7:c2:b4:df:5a:fa:33:43:36:62:23:3f:
         7a:6d:68:98:9a:1b:b3:08:1a:94:10:2a:46:57:dc:6a:34:54:
         23:f5:01:44:88:96:ee:45:45:7c:3a:d5:9a:dd:06:2c:80:83:
         2a:6f:32:f9:55:3c:1e:77:18:4f:2b:56:21:da:73:2e:3f:88:
         9f:46:19:ec:2a:8f:85:10:20:70:df:cc:d0:39:c9:a9:64:59:
         c8:a3:5e:78:87:e4:57:db:31:16:cb:32:99:37:f4:9c:ba:b0:
         6b:63:92:36:5c:9e:ff:b4:00:65:19:47:2d:3e:e9:a9:bb:ca:
         c4:c2:51:f7:e0:ca:c6:45:b7:66:5e:9b:15:f3:f1:6b:d2:c2:
         66:31:10:3f:89:04:a7:a6:07:2e:03:b0:53:c0:dc:43:b0:7b:
         f0:3c:94:9a:9e:1a:ea:07:a4:d9:f7:32:d6:f3:c3:11:23:19:
         30:6e:88:21:84:28:4d:b3:23:92:cb:dc:ce:61:06:66:f0:d0:
         77:7b:b3:b0:97:d9:79:6c:3a:b0:1b:ab:a6:0d:1f:9e:48:04:
         43:c3:e0:37:53:5e:88:6d:cb:28:4a:06:16:c5:8f:fe:6e:99:
         23:50:60:76:42:d7:e8:29:e1:a6:0c:4a:65:3f:00:99:d9:a8:
         e6:e1:93:47:34:2a:95:9b:d0:5c:0e:da:12:87:46:9f:62:14:
         42:78:02:61:3c:06:bd:a2:3c:37:35:84:e4:de:0e:d6:32:72:
         64:47:55:5c:42:fb:ae:d9:3a:0d:8d:6e:79:22:f9:11:e7:6e:
         07:a7:7c:bf:88:6d:2f:71:19:e5:b2:bb:14:a0:14:7a:dd:35:
         2c:cc:2d:a3:af:51:e1:89:0e:7e:8d:51:63:f2:d2:cc:12:16:
         b0:59:74:5c:24:34:07:b1:a3:e5:27:7b:97:ff:a8:d1:8d:60:
         af:ba:d1:4a:f2:bb:7d:6f:d7:2f:d2:7a:b5:12:05:ad:f4:74:
         6a:68:0b:f1:39:0b:ea:ef
-----BEGIN CERTIFICATE-----
MIIGxzCCBK+gAwIBAgIBCjANBgkqhkiG9w0BAQsFADCBozELMAkGA1UEBhMCQ1ox
FzAVBgNVBAoTDkdSQVBFIFNDLCBhLnMuMSAwHgYDVQQLExdOYW5ndS5UViBNZWRp
YSBQbGF0Zm9ybTE3MDUGA1UEAxMuTmFuZ3UuVFYgTWVkaWEgUGxhdGZvcm0gUm9v
dCBTaWduaW5nIEF1dGhvcml0eTEgMB4GCSqGSIb3DQEJARYRaGVscGRlc2tAbmFu
Z3UudHYwHhcNMjMxMDA2MTI0MzU4WhcNMjgxMDA0MTI0MzU4WjB2MQswCQYDVQQG
EwJDWjEXMBUGA1UEChMOR1JBUEUgU0MsIGEucy4xIDAeBgNVBAsTF05hbmd1LlRW
IE1lZGlhIFBsYXRmb3JtMQowCAYDVQQDEwExMSAwHgYJKoZIhvcNAQkBFhFoZWxw
ZGVza0BuYW5ndS50djCCAiIwDQYJKoZIhvcNAQEBBQADggIPADCCAgoCggIBAMxQ
0gT5U9ku6blxN+JxuTXNERJTpoEiR2nU3Sh+PVLxkuMGYjcvY6u9vj5PJbDUjnib
steWdDCADFCTzJL2sbHCT/jMZMYeFv+rsWOU/Lzp882KOQfGTXDlKhprMdf4Fhjz
CycmcNgBX61ygfk+BpSUDN/X42Lf9rWXbHaJ71q3NbZufGa8LTetX6PTeA2MZC5k
soKln/S2lSViDCpydczHeIcIX8DYO2XhdhbG3KEF5L7E9kbqfTXApivbmO54aV8h
PwB+0e+y0frXzxZCHML3viiW1Od+R1HDhmeS/3oLna8kL3D1vEaLvnlpHF1xPt/Y
MIlfO/SdxeUeHKpJ1HQ5ndrDQI6xCWD0x35zdHUZBIkJhFtME6nJH51AeZKUkytd
sB90FtPjS0roM5SNXPm5cql1GRV28NMIv/R9QvUsZP2wFQmvqO3L3ekYtDM6Aw28
2XdbWivp7xfSmRS3YJzrscPbiWNy1ynynI9AwCpUa2Gz3MIURTjmEvIEkWuw+XKj
rkQCGwjgu7crtYDo6XcD6xAmhi/ajBAaax3nCm5QyQ+jtqndlyiZMTwGaL+g5EBx
N8bZhuFB5gFvott8XXQBW1xyndoj1/YiayvWO4W2z7IyGCKkeRz1/Q+lnGndrV7Y
L38u0+0X/JDdxVrIqkGlbXFsn4c+V+nZy/PJ2dezAgMBAAGjggEwMIIBLDAJBgNV
HRMEAjAAMB0GA1UdDgQWBBT6L5mE6azcecAlRuL4SJsKXGSmZzCBwQYDVR0jBIG5
MIG2gBQKLwNTaSv8lxIpktFIZimfAC0JQ6GBmqSBlzCBlDELMAkGA1UEBhMCQ1ox
KDAmBgNVBAMTH1Jvb3QgU2lnbmluZyBBdXRob3JpdHkgLSBTSEEyNTYxFzAVBgNV
BAoTDm5hbmd1LlRWLCBhLnMuMSAwHgYDVQQLExduYW5ndS5UViBNZWRpYSBQbGF0
Zm9ybTEgMB4GCSqGSIb3DQEJARYRaGVscGRlc2tAbmFuZ3UudHaCAQMwLwYJYIZI
AYb4QgEEBCIWIGh0dHBzOi8vd3d3Lml0b25pcy50di9yZXZva2UuY3JsMAsGA1Ud
DwQEAwIC5DANBgkqhkiG9w0BAQsFAAOCAgEAeJPqzW1HsjnGWuLo2x8cUf+dnhrM
ZhZrBz8dGorjykPWl8g1MRD+4AD0OLVPx8voj+8faL2ksfD87VyQZMsVLZZAt/P8
w53ve7uknLta5KqQhXKKWD3js/61YKxxcKRiR19Fkh90ToNhjYXfgdVnUq2s7fwQ
LyKePVcWVTPZNMYA851N18K031r6M0M2YiM/em1omJobswgalBAqRlfcajRUI/UB
RIiW7kVFfDrVmt0GLICDKm8y+VU8HncYTytWIdpzLj+In0YZ7CqPhRAgcN/M0DnJ
qWRZyKNeeIfkV9sxFssymTf0nLqwa2OSNlye/7QAZRlHLT7pqbvKxMJR9+DKxkW3
Zl6bFfPxa9LCZjEQP4kEp6YHLgOwU8DcQ7B78DyUmp4a6gek2fcy1vPDESMZMG6I
IYQoTbMjksvczmEGZvDQd3uzsJfZeWw6sBurpg0fnkgEQ8PgN1NeiG3LKEoGFsWP
/m6ZI1BgdkLX6CnhpgxKZT8Amdmo5uGTRzQqlZvQXA7aEodGn2IUQngCYTwGvaI8
NzWE5N4O1jJyZEdVXEL7rtk6DY1ueSL5EeduB6d8v4htL3EZ5bK7FKAUet01LMwt
o69R4YkOfo1RY/LSzBIWsFl0XCQ0B7Gj5Sd7l/+o0Y1gr7rRSvK7fW/XL9J6tRIF
rfR0amgL8TkL6u8=
-----END CERTIFICATE-----
